target datalayout = "e-m:e-p270:32:32-p271:32:32-p272:64:64-i64:64-i128:128-f80:128-n8:16:32:64-S128"
target triple = "x86_64-unknown-linux-gnu"

%struct.Object = type { ptr, ptr, ptr, i32, ptr }
%struct.MachineState = type { %struct.Object, ptr, ptr, ptr, i32, ptr, i8, i8, i8, i8, ptr, i8, i8, i8, ptr, ptr, ptr, ptr, ptr, i64, i64, i64, %struct.BootConfiguration, ptr, ptr, ptr, ptr, ptr, ptr, %struct.CpuTopology, ptr, ptr }
%struct.BootConfiguration = type { ptr, ptr, i8, i8, ptr, i8, i64, i8, i64, i8, i8 }
%struct.CpuTopology = type { i32, i32, i32, i32, i32, i32, i32, i32, i32 }
%struct.MemoryInfo = type { i64, i8, i64 }

@.str.1 = private unnamed_addr constant [8 x i8] c"machine\00", align 1
@.str.15 = private unnamed_addr constant [98 x i8] c"/home/dtcxzyw/WorkSpace/Projects/compilers/llvm-opt-benchmark/bench/qemu/qemu/include/hw/boards.h\00", align 1
@__func__.MACHINE = private unnamed_addr constant [8 x i8] c"MACHINE\00", align 1

; Function Attrs: nounwind sspstrong uwtable
define internal ptr @MACHINE(ptr noundef %obj) #0 {
entry:
  %obj.addr = alloca ptr, align 8
  store ptr %obj, ptr %obj.addr, align 8
  %0 = load ptr, ptr %obj.addr, align 8
  %call = call ptr @object_dynamic_cast_assert(ptr noundef %0, ptr noundef @.str.1, ptr noundef @.str.15, i32 noundef 23, ptr noundef @__func__.MACHINE)
  ret ptr %call
}

; Function Attrs: nounwind sspstrong uwtable
define dso_local ptr @qmp_query_memory_size_summary(ptr noundef %errp) #0 {
entry:
  %errp.addr = alloca ptr, align 8
  %mem_info = alloca ptr, align 8
  %ms = alloca ptr, align 8
  store ptr %errp, ptr %errp.addr, align 8
  %call = call noalias ptr @g_malloc0_n(i64 noundef 1, i64 noundef 24) #10
  store ptr %call, ptr %mem_info, align 8
  %call1 = call ptr @qdev_get_machine()
  %call2 = call ptr @MACHINE(ptr noundef %call1)
  store ptr %call2, ptr %ms, align 8
  %0 = load ptr, ptr %ms, align 8
  %ram_size = getelementptr inbounds %struct.MachineState, ptr %0, i32 0, i32 19
  %1 = load i64, ptr %ram_size, align 8
  %2 = load ptr, ptr %mem_info, align 8
  %base_memory = getelementptr inbounds %struct.MemoryInfo, ptr %2, i32 0, i32 0
  store i64 %1, ptr %base_memory, align 8
  %call3 = call i64 @get_plugged_memory_size()
  %3 = load ptr, ptr %mem_info, align 8
  %plugged_memory = getelementptr inbounds %struct.MemoryInfo, ptr %3, i32 0, i32 2
  store i64 %call3, ptr %plugged_memory, align 8
  %4 = load ptr, ptr %mem_info, align 8
  %plugged_memory4 = getelementptr inbounds %struct.MemoryInfo, ptr %4, i32 0, i32 2
  %5 = load i64, ptr %plugged_memory4, align 8
  %cmp = icmp ne i64 %5, -1
  %6 = load ptr, ptr %mem_info, align 8
  %has_plugged_memory = getelementptr inbounds %struct.MemoryInfo, ptr %6, i32 0, i32 1
  %frombool = zext i1 %cmp to i8
  store i8 %frombool, ptr %has_plugged_memory, align 8
  %7 = load ptr, ptr %mem_info, align 8
  ret ptr %7
}