; Function Attrs: nounwind sspstrong uwtable
define dso_local noalias noundef ptr @qmp_query_memory_size_summary(ptr noundef readnone captures(none) %errp) local_unnamed_addr #0 {
entry:
  %call = tail call noalias dereferenceable_or_null(24) ptr @g_malloc0_n(i64 noundef 1, i64 noundef 24) #10
  %call1 = tail call ptr @qdev_get_machine() #7
  %call.i = tail call ptr @object_dynamic_cast_assert(ptr noundef %call1, ptr noundef nonnull @.str.1, ptr noundef nonnull @.str.15, i32 noundef 23, ptr noundef nonnull @__func__.MACHINE) #7
  %ram_size = getelementptr inbounds nuw i8, ptr %call.i, i64 144
  %0 = load i64, ptr %ram_size, align 8
  store i64 %0, ptr %call, align 8
  %call3 = tail call i64 @get_plugged_memory_size() #7
  %plugged_memory = getelementptr inbounds nuw i8, ptr %call, i64 16
  store i64 %call3, ptr %plugged_memory, align 8
  %cmp = icmp ne i64 %call3, -1
  %has_plugged_memory = getelementptr inbounds nuw i8, ptr %call, i64 8
  %frombool = zext i1 %cmp to i8
  store i8 %frombool, ptr %has_plugged_memory, align 8
  ret ptr %call
}